(lp0
I65537
aL32555779114994518690038722236182084396458591524169245740920319806752547813285L
aL87518277856326993370895760252375621030607063198022872078153605223507741310149L
aL274978861437719611269573178821914014627L
aL318272747944114765473186678791339168887L
a.